	.arch armv6
	.eabi_attribute 28, 1
	.eabi_attribute 20, 1
	.eabi_attribute 21, 1
	.eabi_attribute 23, 3
	.eabi_attribute 24, 1
	.eabi_attribute 25, 1
	.eabi_attribute 26, 2
	.eabi_attribute 30, 2
	.eabi_attribute 34, 1
	.eabi_attribute 18, 4
	.file	"test.c"
	.text
.Ltext0:
	.cfi_sections	.debug_frame
	.section	.rodata.str1.4,"aMS",%progbits,1
	.align	2
.LC1:
	.ascii	"0x%08x \000"
	.section	.text.startup,"ax",%progbits
	.align	2
	.global	main
	.arch armv6
	.syntax unified
	.arm
	.fpu neon
	.type	main, %function
main:
.LVL0:
.LFB11:
	.file 1 "test.c"
	.loc 1 7 33 view -0
	.cfi_startproc
	@ args = 0, pretend = 0, frame = 32
	@ frame_needed = 0, uses_anonymous_args = 0
	.loc 1 10 3 view .LVU1
	.loc 1 12 3 view .LVU2
	.loc 1 7 33 is_stmt 0 view .LVU3
	push	{r4, r5, r6, lr}
	.cfi_def_cfa_offset 16
	.cfi_offset 4, -16
	.cfi_offset 5, -12
	.cfi_offset 6, -8
	.cfi_offset 14, -4
	sub	sp, sp, #32
	.cfi_def_cfa_offset 48
	.loc 1 12 7 view .LVU4
	mov	r2, #32
	mov	r1, #0
.LVL1:
	.loc 1 12 7 view .LVU5
	mov	r0, sp
	bl	memset
.LVL2:
	.loc 1 13 3 is_stmt 1 view .LVU6
	.loc 1 14 3 view .LVU7
	.loc 1 15 3 view .LVU8
	mov	r3, sp
	.syntax divided
@ 15 "test.c" 1
	vmov.i8 q10, 0xf0
	vld1.32 {d0-d1}, [r2]!
	vand q1, q0, q10
	vst1.64 {d2-d3}, [r3]!
	vld1.32 {d0-d1}, [r2]!
	vand q1, q0, q10
	vst1.64 {d2-d3}, [r3]
@ 0 "" 2
.LVL3:
	.loc 1 26 3 view .LVU9
	.arm
	.syntax unified
.LBB2:
	.loc 1 26 8 view .LVU10
	.loc 1 26 19 view .LVU11
	.loc 1 27 5 is_stmt 0 view .LVU12
	ldr	r6, .L7
	mov	r4, sp
	add	r5, sp, #28
.LBE2:
	.loc 1 15 3 view .LVU13
	mov	r1, #0
	b	.L3
.LVL4:
.L6:
.LBB3:
	.loc 1 27 5 view .LVU14
	ldr	r1, [r4, #4]!
.L3:
	.loc 1 27 5 is_stmt 1 discriminator 3 view .LVU15
	mov	r0, r6
	bl	printf
.LVL5:
	.loc 1 26 26 discriminator 3 view .LVU16
	.loc 1 26 19 discriminator 3 view .LVU17
	.loc 1 26 3 is_stmt 0 discriminator 3 view .LVU18
	cmp	r4, r5
	bne	.L6
.LBE3:
	.loc 1 28 3 is_stmt 1 view .LVU19
	mov	r0, #10
	bl	putchar
.LVL6:
	.loc 1 31 3 view .LVU20
	.loc 1 32 1 is_stmt 0 view .LVU21
	mov	r0, #0
	add	sp, sp, #32
	.cfi_def_cfa_offset 16
	@ sp needed
	pop	{r4, r5, r6, pc}
.L8:
	.align	2
.L7:
	.word	.LC1
	.cfi_endproc
.LFE11:
	.size	main, .-main
	.text
.Letext0:
	.file 2 "<built-in>"
	.file 3 "/usr/include/stdio.h"
	.section	.note.GNU-stack,"",%progbits
